; Function Attrs: nounwind uwtable
define hidden void @aom_highbd_dc_left_predictor_8x4_c(ptr noundef %0, i64 noundef %1, ptr nocapture noundef readnone %2, ptr nocapture noundef readonly %3, i32 noundef %4) local_unnamed_addr #1 {
  br label %.lr.ph.i

.lr.ph.i:                                         ; preds = %.lr.ph.i, %5
  %indvars.iv.i = phi i64 [ 0, %5 ], [ %indvars.iv.next.i, %.lr.ph.i ]
  %.02.i = phi i32 [ 0, %5 ], [ %9, %.lr.ph.i ]
  %6 = getelementptr inbounds i16, ptr %3, i64 %indvars.iv.i
  %7 = load i16, ptr %6, align 2
  %8 = zext i16 %7 to i32
  %9 = add nuw nsw i32 %.02.i, %8
  %indvars.iv.next.i = add nuw nsw i64 %indvars.iv.i, 1
  %exitcond.not.i = icmp eq i64 %indvars.iv.next.i, 4
  br i1 %exitcond.not.i, label %._crit_edge.i, label %.lr.ph.i, !llvm.loop !41

._crit_edge.i:                                    ; preds = %.lr.ph.i
  %10 = add nuw nsw i32 %9, 2
  %11 = lshr i32 %10, 2
  br label %12

12:                                               ; preds = %12, %._crit_edge.i
  %.0164.i = phi ptr [ %0, %._crit_edge.i ], [ %14, %12 ]
  %.0173.i = phi i32 [ 0, %._crit_edge.i ], [ %15, %12 ]
  %13 = tail call ptr @aom_memset16(ptr noundef %.0164.i, i32 noundef %11, i64 noundef 8) #8
  %14 = getelementptr inbounds i16, ptr %.0164.i, i64 %1
  %15 = add nuw nsw i32 %.0173.i, 1
  %exitcond9.not.i = icmp eq i32 %15, 4
  br i1 %exitcond9.not.i, label %highbd_dc_left_predictor.exit, label %12, !llvm.loop !42

highbd_dc_left_predictor.exit:                    ; preds = %12
  ret void
}